Archive member included because of file (symbol)

f:/dev/gcc-arm/4.8_2013q1/bin/../lib/gcc/arm-none-eabi/4.8.3/../../../../arm-none-eabi/lib/armv7e-m/fpu\libg.a(lib_a-memcpy.o)
                              ..\obj\queue.o (memcpy)
f:/dev/gcc-arm/4.8_2013q1/bin/../lib/gcc/arm-none-eabi/4.8.3/../../../../arm-none-eabi/lib/armv7e-m/fpu\libg.a(lib_a-memset.o)
                              ..\obj\tasks.o (memset)
f:/dev/gcc-arm/4.8_2013q1/bin/../lib/gcc/arm-none-eabi/4.8.3/../../../../arm-none-eabi/lib/armv7e-m/fpu\libg.a(lib_a-strncpy.o)
                              ..\obj\tasks.o (strncpy)

Discarded input sections

 .text          0x00000000        0x0 ..\obj\startup_stm32f4xx.o
 .data          0x00000000        0x0 ..\obj\startup_stm32f4xx.o
 .bss           0x00000000        0x0 ..\obj\startup_stm32f4xx.o
 .text          0x00000000        0x0 ..\obj\main.o
 .data          0x00000000        0x0 ..\obj\main.o
 .bss           0x00000000        0x0 ..\obj\main.o
 .text.Out_Data_SPI2
                0x00000000       0x34 ..\obj\main.o
 .text          0x00000000        0x0 ..\obj\stm32f4xx_rcc.o
 .data          0x00000000       0x10 ..\obj\stm32f4xx_rcc.o
 .bss           0x00000000        0x0 ..\obj\stm32f4xx_rcc.o
 .text.RCC_DeInit
                0x00000000       0x34 ..\obj\stm32f4xx_rcc.o
 .text.RCC_AdjustHSICalibrationValue
                0x00000000       0x14 ..\obj\stm32f4xx_rcc.o
 .text.RCC_HSICmd
                0x00000000        0xc ..\obj\stm32f4xx_rcc.o
 .text.RCC_LSEConfig
                0x00000000       0x28 ..\obj\stm32f4xx_rcc.o
 .text.RCC_LSICmd
                0x00000000        0xc ..\obj\stm32f4xx_rcc.o
 .text.RCC_PLLConfig
                0x00000000       0x24 ..\obj\stm32f4xx_rcc.o
 .text.RCC_PLLCmd
                0x00000000        0xc ..\obj\stm32f4xx_rcc.o
 .text.RCC_PLLI2SConfig
                0x00000000       0x14 ..\obj\stm32f4xx_rcc.o
 .text.RCC_PLLI2SCmd
                0x00000000        0xc ..\obj\stm32f4xx_rcc.o
 .text.RCC_ClockSecuritySystemCmd
                0x00000000        0xc ..\obj\stm32f4xx_rcc.o
 .text.RCC_MCO1Config
                0x00000000       0x14 ..\obj\stm32f4xx_rcc.o
 .text.RCC_MCO2Config
                0x00000000       0x14 ..\obj\stm32f4xx_rcc.o
 .text.RCC_SYSCLKConfig
                0x00000000       0x14 ..\obj\stm32f4xx_rcc.o
 .text.RCC_GetSYSCLKSource
                0x00000000       0x10 ..\obj\stm32f4xx_rcc.o
 .text.RCC_HCLKConfig
                0x00000000       0x14 ..\obj\stm32f4xx_rcc.o
 .text.RCC_PCLK1Config
                0x00000000       0x14 ..\obj\stm32f4xx_rcc.o
 .text.RCC_PCLK2Config
                0x00000000       0x14 ..\obj\stm32f4xx_rcc.o
 .text.RCC_GetClocksFreq
                0x00000000       0xb8 ..\obj\stm32f4xx_rcc.o
 .text.RCC_RTCCLKConfig
                0x00000000       0x30 ..\obj\stm32f4xx_rcc.o
 .text.RCC_RTCCLKCmd
                0x00000000        0xc ..\obj\stm32f4xx_rcc.o
 .text.RCC_BackupResetCmd
                0x00000000        0xc ..\obj\stm32f4xx_rcc.o
 .text.RCC_I2SCLKConfig
                0x00000000        0xc ..\obj\stm32f4xx_rcc.o
 .text.RCC_AHB2PeriphClockCmd
                0x00000000       0x1c ..\obj\stm32f4xx_rcc.o
 .text.RCC_AHB3PeriphClockCmd
                0x00000000       0x1c ..\obj\stm32f4xx_rcc.o
 .text.RCC_APB2PeriphClockCmd
                0x00000000       0x1c ..\obj\stm32f4xx_rcc.o
 .text.RCC_AHB1PeriphResetCmd
                0x00000000       0x1c ..\obj\stm32f4xx_rcc.o
 .text.RCC_AHB2PeriphResetCmd
                0x00000000       0x1c ..\obj\stm32f4xx_rcc.o
 .text.RCC_AHB3PeriphResetCmd
                0x00000000       0x1c ..\obj\stm32f4xx_rcc.o
 .text.RCC_AHB1PeriphClockLPModeCmd
                0x00000000       0x1c ..\obj\stm32f4xx_rcc.o
 .text.RCC_AHB2PeriphClockLPModeCmd
                0x00000000       0x1c ..\obj\stm32f4xx_rcc.o
 .text.RCC_AHB3PeriphClockLPModeCmd
                0x00000000       0x1c ..\obj\stm32f4xx_rcc.o
 .text.RCC_APB1PeriphClockLPModeCmd
                0x00000000       0x1c ..\obj\stm32f4xx_rcc.o
 .text.RCC_APB2PeriphClockLPModeCmd
                0x00000000       0x1c ..\obj\stm32f4xx_rcc.o
 .text.RCC_ITConfig
                0x00000000       0x1c ..\obj\stm32f4xx_rcc.o
 .text.RCC_ClearFlag
                0x00000000       0x10 ..\obj\stm32f4xx_rcc.o
 .text.RCC_GetITStatus
                0x00000000       0x14 ..\obj\stm32f4xx_rcc.o
 .text.RCC_ClearITPendingBit
                0x00000000        0xc ..\obj\stm32f4xx_rcc.o
 .text          0x00000000        0x0 ..\obj\timers.o
 .data          0x00000000        0x0 ..\obj\timers.o
 .bss           0x00000000        0x0 ..\obj\timers.o
 .debug_info    0x00000000       0x4b ..\obj\timers.o
 .debug_abbrev  0x00000000       0x24 ..\obj\timers.o
 .debug_aranges
                0x00000000       0x18 ..\obj\timers.o
 .debug_line    0x00000000       0x1d ..\obj\timers.o
 .debug_str     0x00000000      0x136 ..\obj\timers.o
 .comment       0x00000000       0x71 ..\obj\timers.o
 .ARM.attributes
                0x00000000       0x39 ..\obj\timers.o
 .text          0x00000000        0x0 ..\obj\tasks.o
 .text.vTaskEndScheduler
                0x00000000       0x18 ..\obj\tasks.o
 .text.xTaskGetTickCount
                0x00000000       0x18 ..\obj\tasks.o
 .text.xTaskGetTickCountFromISR
                0x00000000       0x18 ..\obj\tasks.o
 .text.uxTaskGetNumberOfTasks
                0x00000000        0xc ..\obj\tasks.o
 .text.vTaskPlaceOnEventList
                0x00000000       0x2c ..\obj\tasks.o
 .text.xTaskRemoveFromEventList
                0x00000000       0x68 ..\obj\tasks.o
 .text.vTaskSetTimeOutState
                0x00000000       0x14 ..\obj\tasks.o
 .text.xTaskCheckForTimeOut
                0x00000000       0x5c ..\obj\tasks.o
 .text.vTaskMissedYield
                0x00000000       0x10 ..\obj\tasks.o
 .text.xTaskGetCurrentTaskHandle
                0x00000000        0xc ..\obj\tasks.o
 .text.vTaskPriorityInherit
                0x00000000       0x74 ..\obj\tasks.o
 .text.vTaskPriorityDisinherit
                0x00000000       0x48 ..\obj\tasks.o
 .text          0x00000000        0x0 ..\obj\stm32f4xx_gpio.o
 .data          0x00000000        0x0 ..\obj\stm32f4xx_gpio.o
 .bss           0x00000000        0x0 ..\obj\stm32f4xx_gpio.o
 .text.GPIO_DeInit
                0x00000000      0x104 ..\obj\stm32f4xx_gpio.o
 .text.GPIO_StructInit
                0x00000000       0x14 ..\obj\stm32f4xx_gpio.o
 .text.GPIO_PinLockConfig
                0x00000000       0x24 ..\obj\stm32f4xx_gpio.o
 .text.GPIO_ReadInputDataBit
                0x00000000        0xc ..\obj\stm32f4xx_gpio.o
 .text.GPIO_ReadInputData
                0x00000000        0x8 ..\obj\stm32f4xx_gpio.o
 .text.GPIO_ReadOutputDataBit
                0x00000000        0xc ..\obj\stm32f4xx_gpio.o
 .text.GPIO_ReadOutputData
                0x00000000        0x8 ..\obj\stm32f4xx_gpio.o
 .text.GPIO_WriteBit
                0x00000000        0xc ..\obj\stm32f4xx_gpio.o
 .text.GPIO_Write
                0x00000000        0x4 ..\obj\stm32f4xx_gpio.o
 .text.GPIO_ToggleBits
                0x00000000        0x8 ..\obj\stm32f4xx_gpio.o
 .text          0x00000000        0x0 ..\obj\stm32f4xx_flash.o
 .data          0x00000000        0x0 ..\obj\stm32f4xx_flash.o
 .bss           0x00000000        0x0 ..\obj\stm32f4xx_flash.o
 .text.FLASH_SetLatency
                0x00000000        0xc ..\obj\stm32f4xx_flash.o
 .text.FLASH_PrefetchBufferCmd
                0x00000000       0x20 ..\obj\stm32f4xx_flash.o
 .text.FLASH_InstructionCacheCmd
                0x00000000       0x20 ..\obj\stm32f4xx_flash.o
 .text.FLASH_DataCacheCmd
                0x00000000       0x20 ..\obj\stm32f4xx_flash.o
 .text.FLASH_InstructionCacheReset
                0x00000000       0x10 ..\obj\stm32f4xx_flash.o
 .text.FLASH_DataCacheReset
                0x00000000       0x10 ..\obj\stm32f4xx_flash.o
 .text.FLASH_Unlock
                0x00000000       0x20 ..\obj\stm32f4xx_flash.o
 .text.FLASH_Lock
                0x00000000       0x10 ..\obj\stm32f4xx_flash.o
 .text.FLASH_OB_Unlock
                0x00000000       0x20 ..\obj\stm32f4xx_flash.o
 .text.FLASH_OB_Lock
                0x00000000       0x10 ..\obj\stm32f4xx_flash.o
 .text.FLASH_OB_BORConfig
                0x00000000       0x18 ..\obj\stm32f4xx_flash.o
 .text.FLASH_OB_GetUser
                0x00000000       0x10 ..\obj\stm32f4xx_flash.o
 .text.FLASH_OB_GetWRP
                0x00000000        0xc ..\obj\stm32f4xx_flash.o
 .text.FLASH_OB_GetRDP
                0x00000000       0x14 ..\obj\stm32f4xx_flash.o
 .text.FLASH_OB_GetBOR
                0x00000000       0x10 ..\obj\stm32f4xx_flash.o
 .text.FLASH_ITConfig
                0x00000000       0x1c ..\obj\stm32f4xx_flash.o
 .text.FLASH_GetFlagStatus
                0x00000000       0x14 ..\obj\stm32f4xx_flash.o
 .text.FLASH_ClearFlag
                0x00000000        0xc ..\obj\stm32f4xx_flash.o
 .text.FLASH_GetStatus
                0x00000000       0x40 ..\obj\stm32f4xx_flash.o
 .text.FLASH_WaitForLastOperation
                0x00000000       0x38 ..\obj\stm32f4xx_flash.o
 .text.FLASH_EraseSector
                0x00000000       0x6c ..\obj\stm32f4xx_flash.o
 .text.FLASH_EraseAllSectors
                0x00000000       0x5c ..\obj\stm32f4xx_flash.o
 .text.FLASH_ProgramDoubleWord
                0x00000000       0x40 ..\obj\stm32f4xx_flash.o
 .text.FLASH_ProgramWord
                0x00000000       0x3c ..\obj\stm32f4xx_flash.o
 .text.FLASH_ProgramHalfWord
                0x00000000       0x3c ..\obj\stm32f4xx_flash.o
 .text.FLASH_ProgramByte
                0x00000000       0x38 ..\obj\stm32f4xx_flash.o
 .text.FLASH_OB_WRPConfig
                0x00000000       0x30 ..\obj\stm32f4xx_flash.o
 .text.FLASH_OB_RDPConfig
                0x00000000       0x18 ..\obj\stm32f4xx_flash.o
 .text.FLASH_OB_UserConfig
                0x00000000       0x28 ..\obj\stm32f4xx_flash.o
 .text.FLASH_OB_Launch
                0x00000000       0x18 ..\obj\stm32f4xx_flash.o
 .debug_info    0x00000000      0x7a6 ..\obj\stm32f4xx_flash.o
 .debug_abbrev  0x00000000      0x1b0 ..\obj\stm32f4xx_flash.o
 .debug_loc     0x00000000      0x5a5 ..\obj\stm32f4xx_flash.o
 .debug_aranges
                0x00000000      0x108 ..\obj\stm32f4xx_flash.o
 .debug_ranges  0x00000000       0xf8 ..\obj\stm32f4xx_flash.o
 .debug_line    0x00000000      0x40f ..\obj\stm32f4xx_flash.o
 .debug_str     0x00000000      0x589 ..\obj\stm32f4xx_flash.o
 .comment       0x00000000       0x71 ..\obj\stm32f4xx_flash.o
 .ARM.attributes
                0x00000000       0x39 ..\obj\stm32f4xx_flash.o
 .debug_frame   0x00000000      0x268 ..\obj\stm32f4xx_flash.o
 .text          0x00000000        0x0 ..\obj\list.o
 .data          0x00000000        0x0 ..\obj\list.o
 .bss           0x00000000        0x0 ..\obj\list.o
 .text          0x00000000        0x0 ..\obj\system_stm32f4xx.o
 .data          0x00000000       0x14 ..\obj\system_stm32f4xx.o
 .bss           0x00000000        0x0 ..\obj\system_stm32f4xx.o
 .text.SystemCoreClockUpdate
                0x00000000       0x8c ..\obj\system_stm32f4xx.o
 .text          0x00000000        0x0 ..\obj\syscalls.o
 .data          0x00000000        0x0 ..\obj\syscalls.o
 .bss           0x00000000        0x4 ..\obj\syscalls.o
 .text._sbrk    0x00000000       0x20 ..\obj\syscalls.o
 .text.link     0x00000000        0x8 ..\obj\syscalls.o
 .text._close   0x00000000        0x8 ..\obj\syscalls.o
 .text._fstat   0x00000000        0xc ..\obj\syscalls.o
 .text._isatty  0x00000000        0x4 ..\obj\syscalls.o
 .text._lseek   0x00000000        0x4 ..\obj\syscalls.o
 .text._read    0x00000000        0x4 ..\obj\syscalls.o
 .text._write   0x00000000        0x4 ..\obj\syscalls.o
 .text.abort    0x00000000        0x4 ..\obj\syscalls.o
 .debug_info    0x00000000      0x3ed ..\obj\syscalls.o
 .debug_abbrev  0x00000000       0xf1 ..\obj\syscalls.o
 .debug_loc     0x00000000      0x108 ..\obj\syscalls.o
 .debug_aranges
                0x00000000       0x60 ..\obj\syscalls.o
 .debug_ranges  0x00000000       0x50 ..\obj\syscalls.o
 .debug_line    0x00000000      0x150 ..\obj\syscalls.o
 .debug_str     0x00000000      0x30f ..\obj\syscalls.o
 .comment       0x00000000       0x71 ..\obj\syscalls.o
 .ARM.attributes
                0x00000000       0x39 ..\obj\syscalls.o
 .debug_frame   0x00000000       0xa0 ..\obj\syscalls.o
 .text          0x00000000        0x0 ..\obj\queue.o
 .data          0x00000000        0x0 ..\obj\queue.o
 .bss           0x00000000        0x0 ..\obj\queue.o
 .text.prvCopyDataToQueue
                0x00000000       0x5c ..\obj\queue.o
 .text.prvCopyDataFromQueue
                0x00000000       0x24 ..\obj\queue.o
 .text.prvUnlockQueue
                0x00000000       0x7c ..\obj\queue.o
 .text.xQueueGenericReset
                0x00000000       0x5c ..\obj\queue.o
 .text.xQueueGenericCreate
                0x00000000       0x40 ..\obj\queue.o
 .text.xQueueGenericSend
                0x00000000       0xdc ..\obj\queue.o
 .text.xQueueCreateMutex
                0x00000000       0x44 ..\obj\queue.o
 .text.xQueueGenericSendFromISR
                0x00000000       0x6c ..\obj\queue.o
 .text.xQueueGenericReceive
                0x00000000      0x110 ..\obj\queue.o
 .text.xQueueReceiveFromISR
                0x00000000       0x60 ..\obj\queue.o
 .text.uxQueueMessagesWaiting
                0x00000000       0x14 ..\obj\queue.o
 .text.uxQueueMessagesWaitingFromISR
                0x00000000        0x4 ..\obj\queue.o
 .text.vQueueDelete
                0x00000000       0x14 ..\obj\queue.o
 .text.xQueueIsQueueEmptyFromISR
                0x00000000        0xc ..\obj\queue.o
 .text.xQueueIsQueueFullFromISR
                0x00000000       0x10 ..\obj\queue.o
 .debug_info    0x00000000      0xe86 ..\obj\queue.o
 .debug_abbrev  0x00000000      0x261 ..\obj\queue.o
 .debug_loc     0x00000000      0xa26 ..\obj\queue.o
 .debug_aranges
                0x00000000       0x90 ..\obj\queue.o
 .debug_ranges  0x00000000       0x80 ..\obj\queue.o
 .debug_line    0x00000000      0x33d ..\obj\queue.o
 .debug_str     0x00000000      0x6c5 ..\obj\queue.o
 .comment       0x00000000       0x71 ..\obj\queue.o
 .ARM.attributes
                0x00000000       0x39 ..\obj\queue.o
 .debug_frame   0x00000000      0x1a8 ..\obj\queue.o
 .text          0x00000000        0x0 ..\obj\port.o
 .bss           0x00000000        0x0 ..\obj\port.o
 .text.vPortEndScheduler
                0x00000000        0x4 ..\obj\port.o
 .rodata        0x00000000        0x4 ..\obj\port.o
 .text          0x00000000        0x0 ..\obj\croutine.o
 .data          0x00000000        0x0 ..\obj\croutine.o
 .bss           0x00000000       0x94 ..\obj\croutine.o
 .text.xCoRoutineCreate
                0x00000000       0xc4 ..\obj\croutine.o
 .text.vCoRoutineAddToDelayedList
                0x00000000       0x44 ..\obj\croutine.o
 .text.vCoRoutineSchedule
                0x00000000      0x174 ..\obj\croutine.o
 .text.xCoRoutineRemoveFromEventList
                0x00000000       0x30 ..\obj\croutine.o
 .debug_info    0x00000000      0x745 ..\obj\croutine.o
 .debug_abbrev  0x00000000      0x26b ..\obj\croutine.o
 .debug_loc     0x00000000      0x283 ..\obj\croutine.o
 .debug_aranges
                0x00000000       0x38 ..\obj\croutine.o
 .debug_ranges  0x00000000       0x28 ..\obj\croutine.o
 .debug_line    0x00000000      0x1ee ..\obj\croutine.o
 .debug_str     0x00000000      0x517 ..\obj\croutine.o
 .comment       0x00000000       0x71 ..\obj\croutine.o
 .ARM.attributes
                0x00000000       0x39 ..\obj\croutine.o
 .debug_frame   0x00000000       0x8c ..\obj\croutine.o
 .text          0x00000000        0x0 ..\obj\stm32f4xx_spi.o
 .data          0x00000000        0x0 ..\obj\stm32f4xx_spi.o
 .bss           0x00000000        0x0 ..\obj\stm32f4xx_spi.o
 .text.I2S_Init
                0x00000000       0xdc ..\obj\stm32f4xx_spi.o
 .text.SPI_StructInit
                0x00000000       0x18 ..\obj\stm32f4xx_spi.o
 .text.I2S_StructInit
                0x00000000       0x14 ..\obj\stm32f4xx_spi.o
 .text.I2S_Cmd  0x00000000       0x1c ..\obj\stm32f4xx_spi.o
 .text.SPI_DataSizeConfig
                0x00000000       0x18 ..\obj\stm32f4xx_spi.o
 .text.SPI_BiDirectionalLineConfig
                0x00000000       0x20 ..\obj\stm32f4xx_spi.o
 .text.SPI_NSSInternalSoftwareConfig
                0x00000000       0x24 ..\obj\stm32f4xx_spi.o
 .text.SPI_SSOutputCmd
                0x00000000       0x1c ..\obj\stm32f4xx_spi.o
 .text.SPI_TIModeCmd
                0x00000000       0x1c ..\obj\stm32f4xx_spi.o
 .text.I2S_FullDuplexConfig
                0x00000000       0x4c ..\obj\stm32f4xx_spi.o
 .text.SPI_CalculateCRC
                0x00000000       0x1c ..\obj\stm32f4xx_spi.o
 .text.SPI_TransmitCRC
                0x00000000        0xc ..\obj\stm32f4xx_spi.o
 .text.SPI_GetCRC
                0x00000000        0xc ..\obj\stm32f4xx_spi.o
 .text.SPI_GetCRCPolynomial
                0x00000000        0x8 ..\obj\stm32f4xx_spi.o
 .text.SPI_I2S_DMACmd
                0x00000000       0x18 ..\obj\stm32f4xx_spi.o
 .text.SPI_I2S_ITConfig
                0x00000000       0x20 ..\obj\stm32f4xx_spi.o
 .text.SPI_I2S_ClearFlag
                0x00000000        0x8 ..\obj\stm32f4xx_spi.o
 .text.SPI_I2S_GetITStatus
                0x00000000       0x30 ..\obj\stm32f4xx_spi.o
 .text.SPI_I2S_ClearITPendingBit
                0x00000000       0x10 ..\obj\stm32f4xx_spi.o
 .text          0x00000000        0x0 ..\obj\heap_2.o
 .text.xPortGetFreeHeapSize
                0x00000000        0xc ..\obj\heap_2.o
 .text.vPortInitialiseBlocks
                0x00000000        0x4 ..\obj\heap_2.o
 .text          0x00000000      0x134 f:/dev/gcc-arm/4.8_2013q1/bin/../lib/gcc/arm-none-eabi/4.8.3/../../../../arm-none-eabi/lib/armv7e-m/fpu\libg.a(lib_a-memcpy.o)
 .data          0x00000000        0x0 f:/dev/gcc-arm/4.8_2013q1/bin/../lib/gcc/arm-none-eabi/4.8.3/../../../../arm-none-eabi/lib/armv7e-m/fpu\libg.a(lib_a-memcpy.o)
 .bss           0x00000000        0x0 f:/dev/gcc-arm/4.8_2013q1/bin/../lib/gcc/arm-none-eabi/4.8.3/../../../../arm-none-eabi/lib/armv7e-m/fpu\libg.a(lib_a-memcpy.o)
 .ARM.attributes
                0x00000000       0x20 f:/dev/gcc-arm/4.8_2013q1/bin/../lib/gcc/arm-none-eabi/4.8.3/../../../../arm-none-eabi/lib/armv7e-m/fpu\libg.a(lib_a-memcpy.o)
 .text          0x00000000        0x0 f:/dev/gcc-arm/4.8_2013q1/bin/../lib/gcc/arm-none-eabi/4.8.3/../../../../arm-none-eabi/lib/armv7e-m/fpu\libg.a(lib_a-memset.o)
 .data          0x00000000        0x0 f:/dev/gcc-arm/4.8_2013q1/bin/../lib/gcc/arm-none-eabi/4.8.3/../../../../arm-none-eabi/lib/armv7e-m/fpu\libg.a(lib_a-memset.o)
 .bss           0x00000000        0x0 f:/dev/gcc-arm/4.8_2013q1/bin/../lib/gcc/arm-none-eabi/4.8.3/../../../../arm-none-eabi/lib/armv7e-m/fpu\libg.a(lib_a-memset.o)
 .text          0x00000000        0x0 f:/dev/gcc-arm/4.8_2013q1/bin/../lib/gcc/arm-none-eabi/4.8.3/../../../../arm-none-eabi/lib/armv7e-m/fpu\libg.a(lib_a-strncpy.o)
 .data          0x00000000        0x0 f:/dev/gcc-arm/4.8_2013q1/bin/../lib/gcc/arm-none-eabi/4.8.3/../../../../arm-none-eabi/lib/armv7e-m/fpu\libg.a(lib_a-strncpy.o)
 .bss           0x00000000        0x0 f:/dev/gcc-arm/4.8_2013q1/bin/../lib/gcc/arm-none-eabi/4.8.3/../../../../arm-none-eabi/lib/armv7e-m/fpu\libg.a(lib_a-strncpy.o)

Memory Configuration

Name             Origin             Length             Attributes
rom              0x08000000         0x00100000         xr
ram              0x20000000         0x00020000         xrw
ram1             0x10000000         0x00010000         xrw
*default*        0x00000000         0xffffffff

Linker script and memory map

                0x20020000                _eram = 0x20020000

.text           0x08000000     0x1088
 *(.isr_vector .isr_vector.*)
 .isr_vector    0x08000000      0x188 ..\obj\startup_stm32f4xx.o
                0x08000000                g_pfnVectors
 *(.text .text.* .gnu.linkonce.t.*)
 .text.Default_Handler
                0x08000188        0x4 ..\obj\startup_stm32f4xx.o
                0x08000188                RTC_Alarm_IRQHandler
                0x08000188                HASH_RNG_IRQHandler
                0x08000188                EXTI2_IRQHandler
                0x08000188                TIM8_CC_IRQHandler
                0x08000188                DebugMon_Handler
                0x08000188                TIM1_CC_IRQHandler
                0x08000188                DMA2_Stream5_IRQHandler
                0x08000188                HardFault_Handler
                0x08000188                DMA1_Stream5_IRQHandler
                0x08000188                PVD_IRQHandler
                0x08000188                SDIO_IRQHandler
                0x08000188                TAMP_STAMP_IRQHandler
                0x08000188                NMI_Handler
                0x08000188                CAN2_RX1_IRQHandler
                0x08000188                EXTI3_IRQHandler
                0x08000188                TIM8_TRG_COM_TIM14_IRQHandler
                0x08000188                TIM1_UP_TIM10_IRQHandler
                0x08000188                TIM8_UP_TIM13_IRQHandler
                0x08000188                I2C3_ER_IRQHandler
                0x08000188                EXTI0_IRQHandler
                0x08000188                I2C2_EV_IRQHandler
                0x08000188                DMA1_Stream2_IRQHandler
                0x08000188                CAN1_RX0_IRQHandler
                0x08000188                FPU_IRQHandler
                0x08000188                OTG_HS_WKUP_IRQHandler
                0x08000188                UsageFault_Handler
                0x08000188                CAN2_SCE_IRQHandler
                0x08000188                DMA2_Stream2_IRQHandler
                0x08000188                SPI1_IRQHandler
                0x08000188                TIM6_DAC_IRQHandler
                0x08000188                TIM1_BRK_TIM9_IRQHandler
                0x08000188                DCMI_IRQHandler
                0x08000188                CAN2_RX0_IRQHandler
                0x08000188                DMA2_Stream3_IRQHandler
                0x08000188                USART6_IRQHandler
                0x08000188                USART3_IRQHandler
                0x08000188                CRYP_IRQHandler
                0x08000188                CAN1_RX1_IRQHandler
                0x08000188                UART5_IRQHandler
                0x08000188                DMA2_Stream0_IRQHandler
                0x08000188                TIM4_IRQHandler
                0x08000188                I2C1_EV_IRQHandler
                0x08000188                DMA1_Stream6_IRQHandler
                0x08000188                DMA1_Stream1_IRQHandler
                0x08000188                UART4_IRQHandler
                0x08000188                TIM3_IRQHandler
                0x08000188                RCC_IRQHandler
                0x08000188                TIM8_BRK_TIM12_IRQHandler
                0x08000188                EXTI15_10_IRQHandler
                0x08000188                ADC_IRQHandler
                0x08000188                DMA1_Stream7_IRQHandler
                0x08000188                TIM7_IRQHandler
                0x08000188                CAN2_TX_IRQHandler
                0x08000188                TIM5_IRQHandler
                0x08000188                DMA2_Stream7_IRQHandler
                0x08000188                I2C3_EV_IRQHandler
                0x08000188                EXTI9_5_IRQHandler
                0x08000188                RTC_WKUP_IRQHandler
                0x08000188                ETH_WKUP_IRQHandler
                0x08000188                OTG_HS_EP1_IN_IRQHandler
                0x08000188                MemManage_Handler
                0x08000188                DMA1_Stream0_IRQHandler
                0x08000188                CAN1_TX_IRQHandler
                0x08000188                EXTI4_IRQHandler
                0x08000188                FSMC_IRQHandler
                0x08000188                ETH_IRQHandler
                0x08000188                OTG_HS_EP1_OUT_IRQHandler
                0x08000188                WWDG_IRQHandler
                0x08000188                TIM2_IRQHandler
                0x08000188                OTG_FS_WKUP_IRQHandler
                0x08000188                TIM1_TRG_COM_TIM11_IRQHandler
                0x08000188                OTG_HS_IRQHandler
                0x08000188                EXTI1_IRQHandler
                0x08000188                USART2_IRQHandler
                0x08000188                I2C2_ER_IRQHandler
                0x08000188                DMA2_Stream1_IRQHandler
                0x08000188                CAN1_SCE_IRQHandler
                0x08000188                FLASH_IRQHandler
                0x08000188                DMA2_Stream4_IRQHandler
                0x08000188                BusFault_Handler
                0x08000188                USART1_IRQHandler
                0x08000188                OTG_FS_IRQHandler
                0x08000188                SPI3_IRQHandler
                0x08000188                DMA1_Stream4_IRQHandler
                0x08000188                I2C1_ER_IRQHandler
                0x08000188                DMA2_Stream6_IRQHandler
                0x08000188                DMA1_Stream3_IRQHandler
 .text.Default_Reset_Handler
                0x0800018c       0x6c ..\obj\startup_stm32f4xx.o
                0x0800018c                Default_Reset_Handler
                0x0800018c                Reset_Handler
 .text.vLED     0x080001f8       0x90 ..\obj\main.o
                0x080001f8                vLED
 .text.vSPI     0x08000288       0xfc ..\obj\main.o
                0x08000288                vSPI
 .text.main     0x08000384       0x58 ..\obj\main.o
                0x08000384                main
 .text.SPI2_IRQHandler
                0x080003dc       0x28 ..\obj\main.o
                0x080003dc                SPI2_IRQHandler
 .text.RCC_HSEConfig
                0x08000404       0x10 ..\obj\stm32f4xx_rcc.o
                0x08000404                RCC_HSEConfig
 .text.RCC_AHB1PeriphClockCmd
                0x08000414       0x1c ..\obj\stm32f4xx_rcc.o
                0x08000414                RCC_AHB1PeriphClockCmd
 .text.RCC_APB1PeriphClockCmd
                0x08000430       0x1c ..\obj\stm32f4xx_rcc.o
                0x08000430                RCC_APB1PeriphClockCmd
 .text.RCC_APB1PeriphResetCmd
                0x0800044c       0x1c ..\obj\stm32f4xx_rcc.o
                0x0800044c                RCC_APB1PeriphResetCmd
 .text.RCC_APB2PeriphResetCmd
                0x08000468       0x1c ..\obj\stm32f4xx_rcc.o
                0x08000468                RCC_APB2PeriphResetCmd
 .text.RCC_GetFlagStatus
                0x08000484       0x28 ..\obj\stm32f4xx_rcc.o
                0x08000484                RCC_GetFlagStatus
 .text.RCC_WaitForHSEStartUp
                0x080004ac       0x34 ..\obj\stm32f4xx_rcc.o
                0x080004ac                RCC_WaitForHSEStartUp
 .text.prvIdleTask
                0x080004e0       0x14 ..\obj\tasks.o
 .text.prvAddCurrentTaskToDelayedList
                0x080004f4       0x4c ..\obj\tasks.o
 .text.xTaskGenericCreate
                0x08000540      0x198 ..\obj\tasks.o
                0x08000540                xTaskGenericCreate
 .text.vTaskStartScheduler
                0x080006d8       0x44 ..\obj\tasks.o
                0x080006d8                vTaskStartScheduler
 .text.vTaskSuspendAll
                0x0800071c       0x14 ..\obj\tasks.o
                0x0800071c                vTaskSuspendAll
 .text.vTaskIncrementTick
                0x08000730      0x100 ..\obj\tasks.o
                0x08000730                vTaskIncrementTick
 .text.xTaskResumeAll
                0x08000830       0xd0 ..\obj\tasks.o
                0x08000830                xTaskResumeAll
 .text.vTaskDelay
                0x08000900       0x34 ..\obj\tasks.o
                0x08000900                vTaskDelay
 .text.vTaskSwitchContext
                0x08000934       0x70 ..\obj\tasks.o
                0x08000934                vTaskSwitchContext
 .text.GPIO_Init
                0x080009a4       0x90 ..\obj\stm32f4xx_gpio.o
                0x080009a4                GPIO_Init
 .text.GPIO_SetBits
                0x08000a34        0x4 ..\obj\stm32f4xx_gpio.o
                0x08000a34                GPIO_SetBits
 .text.GPIO_ResetBits
                0x08000a38        0x4 ..\obj\stm32f4xx_gpio.o
                0x08000a38                GPIO_ResetBits
 .text.GPIO_PinAFConfig
                0x08000a3c       0x28 ..\obj\stm32f4xx_gpio.o
                0x08000a3c                GPIO_PinAFConfig
 .text.vListInitialise
                0x08000a64       0x18 ..\obj\list.o
                0x08000a64                vListInitialise
 .text.vListInitialiseItem
                0x08000a7c        0x8 ..\obj\list.o
                0x08000a7c                vListInitialiseItem
 .text.vListInsertEnd
                0x08000a84       0x1c ..\obj\list.o
                0x08000a84                vListInsertEnd
 .text.vListInsert
                0x08000aa0       0x3c ..\obj\list.o
                0x08000aa0                vListInsert
 .text.uxListRemove
                0x08000adc       0x28 ..\obj\list.o
                0x08000adc                uxListRemove
 .text.SystemInit
                0x08000b04      0x100 ..\obj\system_stm32f4xx.o
                0x08000b04                SystemInit
 .text.prvPortStartFirstTask
                0x08000c04       0x14 ..\obj\port.o
 .text.vPortEnableVFP
                0x08000c18       0x14 ..\obj\port.o
 .text.pxPortInitialiseStack
                0x08000c2c       0x24 ..\obj\port.o
                0x08000c2c                pxPortInitialiseStack
 .text.SVC_Handler
                0x08000c50       0x1c ..\obj\port.o
                0x08000c50                SVC_Handler
 .text.vPortYield
                0x08000c6c       0x18 ..\obj\port.o
                0x08000c6c                vPortYield
 .text.ulPortSetInterruptMask
                0x08000c84       0x10 ..\obj\port.o
                0x08000c84                ulPortSetInterruptMask
 .text.vPortEnterCritical
                0x08000c94       0x1c ..\obj\port.o
                0x08000c94                vPortEnterCritical
 .text.vPortClearInterruptMask
                0x08000cb0        0x8 ..\obj\port.o
                0x08000cb0                vPortClearInterruptMask
 .text.vPortExitCritical
                0x08000cb8       0x18 ..\obj\port.o
                0x08000cb8                vPortExitCritical
 .text.PendSV_Handler
                0x08000cd0       0x50 ..\obj\port.o
                0x08000cd0                PendSV_Handler
 .text.SysTick_Handler
                0x08000d20       0x20 ..\obj\port.o
                0x08000d20                SysTick_Handler
 .text.vPortSetupTimerInterrupt
                0x08000d40       0x18 ..\obj\port.o
                0x08000d40                vPortSetupTimerInterrupt
 .text.xPortStartScheduler
                0x08000d58       0x40 ..\obj\port.o
                0x08000d58                xPortStartScheduler
 .text.SPI_I2S_DeInit
                0x08000d98       0x64 ..\obj\stm32f4xx_spi.o
                0x08000d98                SPI_I2S_DeInit
 .text.SPI_Init
                0x08000dfc       0x44 ..\obj\stm32f4xx_spi.o
                0x08000dfc                SPI_Init
 .text.SPI_Cmd  0x08000e40       0x1c ..\obj\stm32f4xx_spi.o
                0x08000e40                SPI_Cmd
 .text.SPI_I2S_ReceiveData
                0x08000e5c        0x8 ..\obj\stm32f4xx_spi.o
                0x08000e5c                SPI_I2S_ReceiveData
 .text.SPI_I2S_SendData
                0x08000e64        0x4 ..\obj\stm32f4xx_spi.o
                0x08000e64                SPI_I2S_SendData
 .text.SPI_I2S_GetFlagStatus
                0x08000e68        0xc ..\obj\stm32f4xx_spi.o
                0x08000e68                SPI_I2S_GetFlagStatus
 .text.pvPortMalloc
                0x08000e74       0xc4 ..\obj\heap_2.o
                0x08000e74                pvPortMalloc
 .text.vPortFree
                0x08000f38       0x40 ..\obj\heap_2.o
                0x08000f38                vPortFree
 .text.memset   0x08000f78       0x94 f:/dev/gcc-arm/4.8_2013q1/bin/../lib/gcc/arm-none-eabi/4.8.3/../../../../arm-none-eabi/lib/armv7e-m/fpu\libg.a(lib_a-memset.o)
                0x08000f78                memset
 .text.strncpy  0x0800100c       0x64 f:/dev/gcc-arm/4.8_2013q1/bin/../lib/gcc/arm-none-eabi/4.8.3/../../../../arm-none-eabi/lib/armv7e-m/fpu\libg.a(lib_a-strncpy.o)
                0x0800100c                strncpy
 *(.glue_7t)
 .glue_7t       0x00000000        0x0 linker stubs
 *(.glue_7)
 .glue_7        0x00000000        0x0 linker stubs
 *(.rodata .rodata* .gnu.linkonce.r.*)
 .rodata.str1.4
                0x08001070        0xd ..\obj\main.o
                                 0x10 (size before relaxing)
 *fill*         0x0800107d        0x3 
 .rodata.str1.4
                0x08001080        0x8 ..\obj\tasks.o

.vfp11_veneer   0x08001088        0x0
 .vfp11_veneer  0x00000000        0x0 linker stubs

.v4_bx          0x08001088        0x0
 .v4_bx         0x00000000        0x0 linker stubs

.iplt           0x08001088        0x0
 .iplt          0x00000000        0x0 ..\obj\startup_stm32f4xx.o

.rel.dyn        0x08001088        0x0
 .rel.iplt      0x00000000        0x0 ..\obj\startup_stm32f4xx.o

.ARM.extab
 *(.ARM.extab* .gnu.linkonce.armextab.*)
                0x08001088                __exidx_start = .

.ARM.exidx
 *(.ARM.exidx* .gnu.linkonce.armexidx.*)
                0x08001088                __exidx_end = .
                0x08001088                . = ALIGN (0x4)
                0x08001088                _etext = .
                0x08001088                _sidata = .

.data           0x20000000        0xc load address 0x08001088
                0x20000000                _sdata = .
 *(.data .data.*)
 .data          0x20000000        0x4 ..\obj\tasks.o
 .data          0x20000004        0x4 ..\obj\port.o
 .data          0x20000008        0x4 ..\obj\heap_2.o
                0x2000000c                . = ALIGN (0x4)
                0x2000000c                _edata = .

.igot.plt       0x2000000c        0x0 load address 0x08001094
 .igot.plt      0x00000000        0x0 ..\obj\startup_stm32f4xx.o

.bss            0x2000000c      0xdc4 load address 0x08001094
                0x2000000c                _sbss = .
 *(.bss .bss.*)
 .bss           0x2000000c      0x1b0 ..\obj\tasks.o
                0x2000014c                pxCurrentTCB
 .bss           0x200001bc      0xc14 ..\obj\heap_2.o
 *(COMMON)
                0x20000dd0                . = ALIGN (0x4)
                0x20000dd0                _ebss = .

.co_stack       0x20000dd0      0x800 load address 0x08001e58
                0x20000dd0                . = ALIGN (0x8)
 *(.co_stack .co_stack.*)
 .co_stack      0x20000dd0      0x800 ..\obj\startup_stm32f4xx.o
                0x20000dd0                pulStack
                0x200015d0                . = ALIGN (0x4)
                0x200015d0                _end = .
LOAD ..\obj\startup_stm32f4xx.o
LOAD ..\obj\main.o
LOAD ..\obj\stm32f4xx_rcc.o
LOAD ..\obj\timers.o
LOAD ..\obj\tasks.o
LOAD ..\obj\stm32f4xx_gpio.o
LOAD ..\obj\stm32f4xx_flash.o
LOAD ..\obj\list.o
LOAD ..\obj\system_stm32f4xx.o
LOAD ..\obj\syscalls.o
LOAD ..\obj\queue.o
LOAD ..\obj\port.o
LOAD ..\obj\croutine.o
LOAD ..\obj\stm32f4xx_spi.o
LOAD ..\obj\heap_2.o
START GROUP
LOAD f:/dev/gcc-arm/4.8_2013q1/bin/../lib/gcc/arm-none-eabi/4.8.3/armv7e-m/fpu\libgcc.a
LOAD f:/dev/gcc-arm/4.8_2013q1/bin/../lib/gcc/arm-none-eabi/4.8.3/../../../../arm-none-eabi/lib/armv7e-m/fpu\libg.a
LOAD f:/dev/gcc-arm/4.8_2013q1/bin/../lib/gcc/arm-none-eabi/4.8.3/../../../../arm-none-eabi/lib/armv7e-m/fpu\libc.a
END GROUP
OUTPUT(dithard-stm32f4.elf elf32-littlearm)

.debug_info     0x00000000     0x48b7
 .debug_info    0x00000000      0x11a ..\obj\startup_stm32f4xx.o
 .debug_info    0x0000011a      0xb71 ..\obj\main.o
 .debug_info    0x00000c8b      0xc60 ..\obj\stm32f4xx_rcc.o
 .debug_info    0x000018eb      0xf2c ..\obj\tasks.o
 .debug_info    0x00002817      0x7aa ..\obj\stm32f4xx_gpio.o
 .debug_info    0x00002fc1      0x280 ..\obj\list.o
 .debug_info    0x00003241      0x58b ..\obj\system_stm32f4xx.o
 .debug_info    0x000037cc      0x260 ..\obj\port.o
 .debug_info    0x00003a2c      0xb98 ..\obj\stm32f4xx_spi.o
 .debug_info    0x000045c4      0x2f3 ..\obj\heap_2.o

.debug_abbrev   0x00000000     0x113c
 .debug_abbrev  0x00000000       0xea ..\obj\startup_stm32f4xx.o
 .debug_abbrev  0x000000ea      0x21c ..\obj\main.o
 .debug_abbrev  0x00000306      0x209 ..\obj\stm32f4xx_rcc.o
 .debug_abbrev  0x0000050f      0x2ef ..\obj\tasks.o
 .debug_abbrev  0x000007fe      0x1e3 ..\obj\stm32f4xx_gpio.o
 .debug_abbrev  0x000009e1       0xda ..\obj\list.o
 .debug_abbrev  0x00000abb      0x15f ..\obj\system_stm32f4xx.o
 .debug_abbrev  0x00000c1a      0x188 ..\obj\port.o
 .debug_abbrev  0x00000da2      0x1d2 ..\obj\stm32f4xx_spi.o
 .debug_abbrev  0x00000f74      0x1c8 ..\obj\heap_2.o

.debug_loc      0x00000000     0x2076
 .debug_loc     0x00000000       0x22 ..\obj\startup_stm32f4xx.o
 .debug_loc     0x00000022       0x8e ..\obj\main.o
 .debug_loc     0x000000b0      0xa8a ..\obj\stm32f4xx_rcc.o
 .debug_loc     0x00000b3a      0x7ed ..\obj\tasks.o
 .debug_loc     0x00001327      0x2d2 ..\obj\stm32f4xx_gpio.o
 .debug_loc     0x000015f9       0x65 ..\obj\list.o
 .debug_loc     0x0000165e      0x11f ..\obj\system_stm32f4xx.o
 .debug_loc     0x0000177d       0x8e ..\obj\port.o
 .debug_loc     0x0000180b      0x5e1 ..\obj\stm32f4xx_spi.o
 .debug_loc     0x00001dec      0x28a ..\obj\heap_2.o

.debug_aranges  0x00000000      0x530
 .debug_aranges
                0x00000000       0x28 ..\obj\startup_stm32f4xx.o
 .debug_aranges
                0x00000028       0x40 ..\obj\main.o
 .debug_aranges
                0x00000068      0x178 ..\obj\stm32f4xx_rcc.o
 .debug_aranges
                0x000001e0       0xc0 ..\obj\tasks.o
 .debug_aranges
                0x000002a0       0x88 ..\obj\stm32f4xx_gpio.o
 .debug_aranges
                0x00000328       0x40 ..\obj\list.o
 .debug_aranges
                0x00000368       0x28 ..\obj\system_stm32f4xx.o
 .debug_aranges
                0x00000390       0x88 ..\obj\port.o
 .debug_aranges
                0x00000418       0xe0 ..\obj\stm32f4xx_spi.o
 .debug_aranges
                0x000004f8       0x38 ..\obj\heap_2.o

.debug_ranges   0x00000000      0x4c0
 .debug_ranges  0x00000000       0x18 ..\obj\startup_stm32f4xx.o
 .debug_ranges  0x00000018       0x30 ..\obj\main.o
 .debug_ranges  0x00000048      0x168 ..\obj\stm32f4xx_rcc.o
 .debug_ranges  0x000001b0       0xe0 ..\obj\tasks.o
 .debug_ranges  0x00000290       0x78 ..\obj\stm32f4xx_gpio.o
 .debug_ranges  0x00000308       0x30 ..\obj\list.o
 .debug_ranges  0x00000338       0x18 ..\obj\system_stm32f4xx.o
 .debug_ranges  0x00000350       0x78 ..\obj\port.o
 .debug_ranges  0x000003c8       0xd0 ..\obj\stm32f4xx_spi.o
 .debug_ranges  0x00000498       0x28 ..\obj\heap_2.o

.debug_line     0x00000000     0x1977
 .debug_line    0x00000000       0xa1 ..\obj\startup_stm32f4xx.o
 .debug_line    0x000000a1      0x2d6 ..\obj\main.o
 .debug_line    0x00000377      0x506 ..\obj\stm32f4xx_rcc.o
 .debug_line    0x0000087d      0x40b ..\obj\tasks.o
 .debug_line    0x00000c88      0x2e6 ..\obj\stm32f4xx_gpio.o
 .debug_line    0x00000f6e      0x141 ..\obj\list.o
 .debug_line    0x000010af      0x154 ..\obj\system_stm32f4xx.o
 .debug_line    0x00001203      0x1ec ..\obj\port.o
 .debug_line    0x000013ef      0x3e6 ..\obj\stm32f4xx_spi.o
 .debug_line    0x000017d5      0x1a2 ..\obj\heap_2.o

.debug_str      0x00000000     0x1bac
 .debug_str     0x00000000      0x171 ..\obj\startup_stm32f4xx.o
                                0x183 (size before relaxing)
 .debug_str     0x00000171      0x585 ..\obj\main.o
                                0x68c (size before relaxing)
 .debug_str     0x000006f6      0x5ec ..\obj\stm32f4xx_rcc.o
                                0x852 (size before relaxing)
 .debug_str     0x00000ce2      0x6d0 ..\obj\tasks.o
                                0x8cb (size before relaxing)
 .debug_str     0x000013b2      0x165 ..\obj\stm32f4xx_gpio.o
                                0x4cc (size before relaxing)
 .debug_str     0x00001517       0x8d ..\obj\list.o
                                0x2a8 (size before relaxing)
 .debug_str     0x000015a4      0x116 ..\obj\system_stm32f4xx.o
                                0x3ac (size before relaxing)
 .debug_str     0x000016ba       0xe7 ..\obj\port.o
                                0x2b7 (size before relaxing)
 .debug_str     0x000017a1      0x2a8 ..\obj\stm32f4xx_spi.o
                                0x6ba (size before relaxing)
 .debug_str     0x00001a49      0x163 ..\obj\heap_2.o
                                0x2dc (size before relaxing)

.comment        0x00000000       0x70
 .comment       0x00000000       0x70 ..\obj\startup_stm32f4xx.o
                                 0x71 (size before relaxing)
 .comment       0x00000000       0x71 ..\obj\main.o
 .comment       0x00000000       0x71 ..\obj\stm32f4xx_rcc.o
 .comment       0x00000000       0x71 ..\obj\tasks.o
 .comment       0x00000000       0x71 ..\obj\stm32f4xx_gpio.o
 .comment       0x00000000       0x71 ..\obj\list.o
 .comment       0x00000000       0x71 ..\obj\system_stm32f4xx.o
 .comment       0x00000000       0x71 ..\obj\port.o
 .comment       0x00000000       0x71 ..\obj\stm32f4xx_spi.o
 .comment       0x00000000       0x71 ..\obj\heap_2.o

.ARM.attributes
                0x00000000       0x37
 .ARM.attributes
                0x00000000       0x39 ..\obj\startup_stm32f4xx.o
 .ARM.attributes
                0x00000039       0x39 ..\obj\main.o
 .ARM.attributes
                0x00000072       0x39 ..\obj\stm32f4xx_rcc.o
 .ARM.attributes
                0x000000ab       0x39 ..\obj\tasks.o
 .ARM.attributes
                0x000000e4       0x39 ..\obj\stm32f4xx_gpio.o
 .ARM.attributes
                0x0000011d       0x39 ..\obj\list.o
 .ARM.attributes
                0x00000156       0x39 ..\obj\system_stm32f4xx.o
 .ARM.attributes
                0x0000018f       0x39 ..\obj\port.o
 .ARM.attributes
                0x000001c8       0x39 ..\obj\stm32f4xx_spi.o
 .ARM.attributes
                0x00000201       0x39 ..\obj\heap_2.o
 .ARM.attributes
                0x0000023a       0x34 f:/dev/gcc-arm/4.8_2013q1/bin/../lib/gcc/arm-none-eabi/4.8.3/../../../../arm-none-eabi/lib/armv7e-m/fpu\libg.a(lib_a-memset.o)
 .ARM.attributes
                0x0000026e       0x34 f:/dev/gcc-arm/4.8_2013q1/bin/../lib/gcc/arm-none-eabi/4.8.3/../../../../arm-none-eabi/lib/armv7e-m/fpu\libg.a(lib_a-strncpy.o)

.debug_frame    0x00000000      0xb14
 .debug_frame   0x00000000       0x38 ..\obj\startup_stm32f4xx.o
 .debug_frame   0x00000038       0xa0 ..\obj\main.o
 .debug_frame   0x000000d8      0x2ec ..\obj\stm32f4xx_rcc.o
 .debug_frame   0x000003c4      0x208 ..\obj\tasks.o
 .debug_frame   0x000005cc      0x110 ..\obj\stm32f4xx_gpio.o
 .debug_frame   0x000006dc       0x68 ..\obj\list.o
 .debug_frame   0x00000744       0x34 ..\obj\system_stm32f4xx.o
 .debug_frame   0x00000778      0x110 ..\obj\port.o
 .debug_frame   0x00000888      0x1cc ..\obj\stm32f4xx_spi.o
 .debug_frame   0x00000a54       0x68 ..\obj\heap_2.o
 .debug_frame   0x00000abc       0x2c f:/dev/gcc-arm/4.8_2013q1/bin/../lib/gcc/arm-none-eabi/4.8.3/../../../../arm-none-eabi/lib/armv7e-m/fpu\libg.a(lib_a-memset.o)
 .debug_frame   0x00000ae8       0x2c f:/dev/gcc-arm/4.8_2013q1/bin/../lib/gcc/arm-none-eabi/4.8.3/../../../../arm-none-eabi/lib/armv7e-m/fpu\libg.a(lib_a-strncpy.o)
